target datalayout = "e-m:e-p270:32:32-p271:32:32-p272:64:64-i64:64-i128:128-f80:128-n8:16:32:64-S128"
target triple = "x86_64-pc-linux-gnu"

%struct.Curl_chunker = type { i64, i32, i32, %struct.dynbuf, i8, [17 x i8], i8 }
%struct.dynbuf = type { ptr, i64, i64, i64 }

; Function Attrs: nounwind uwtable
define dso_local void @Curl_httpchunk_reset(ptr noundef %0, ptr noundef %1, i1 noundef zeroext %2) #0 {
  %4 = alloca ptr, align 8
  %5 = alloca ptr, align 8
  %6 = alloca i8, align 1
  store ptr %0, ptr %4, align 8, !tbaa !4
  store ptr %1, ptr %5, align 8, !tbaa !9
  %7 = zext i1 %2 to i8
  store i8 %7, ptr %6, align 1, !tbaa !11
  %8 = load ptr, ptr %5, align 8, !tbaa !9
  %9 = getelementptr inbounds nuw %struct.Curl_chunker, ptr %8, i32 0, i32 4
  store i8 0, ptr %9, align 8, !tbaa !13
  %10 = load ptr, ptr %5, align 8, !tbaa !9
  %11 = getelementptr inbounds nuw %struct.Curl_chunker, ptr %10, i32 0, i32 1
  store i32 0, ptr %11, align 8, !tbaa !19
  %12 = load ptr, ptr %5, align 8, !tbaa !9
  %13 = getelementptr inbounds nuw %struct.Curl_chunker, ptr %12, i32 0, i32 2
  store i32 0, ptr %13, align 4, !tbaa !20
  %14 = load ptr, ptr %5, align 8, !tbaa !9
  %15 = getelementptr inbounds nuw %struct.Curl_chunker, ptr %14, i32 0, i32 3
  call void @Curl_dyn_reset(ptr noundef %15)
  %16 = load i8, ptr %6, align 1, !tbaa !11, !range !21, !noundef !22
  %17 = trunc i8 %16 to i1
  %18 = zext i1 %17 to i32
  %19 = load ptr, ptr %5, align 8, !tbaa !9
  %20 = getelementptr inbounds nuw %struct.Curl_chunker, ptr %19, i32 0, i32 6
  %21 = trunc i32 %18 to i8
  %22 = load i8, ptr %20, align 2
  %23 = and i8 %21, 1
  %24 = and i8 %22, -2
  %25 = or i8 %24, %23
  store i8 %25, ptr %20, align 2
  ret void
}